target datalayout = "e-m:e-p270:32:32-p271:32:32-p272:64:64-i64:64-i128:128-f80:128-n8:16:32:64-S128"
target triple = "x86_64-pc-linux-gnu"

%struct.X11GraphicsConfigIDs = type { ptr, ptr }
%struct.JNINativeInterface_ = type { ptr, ptr, ptr, ptr, ptr, ptr, ptr, ptr, ptr, ptr, ptr, ptr, ptr, ptr, ptr, ptr, ptr, ptr, ptr, ptr, ptr, ptr, ptr, ptr, ptr, ptr, ptr, ptr, ptr, ptr, ptr, ptr, ptr, ptr, ptr, ptr, ptr, ptr, ptr, ptr, ptr, ptr, ptr, ptr, ptr, ptr, ptr, ptr, ptr, ptr, ptr, ptr, ptr, ptr, ptr, ptr, ptr, ptr, ptr, ptr, ptr, ptr, ptr, ptr, ptr, ptr, ptr, ptr, ptr, ptr, ptr, ptr, ptr, ptr, ptr, ptr, ptr, ptr, ptr, ptr, ptr, ptr, ptr, ptr, ptr, ptr, ptr, ptr, ptr, ptr, ptr, ptr, ptr, ptr, ptr, ptr, ptr, ptr, ptr, ptr, ptr, ptr, ptr, ptr, ptr, ptr, ptr, ptr, ptr, ptr, ptr, ptr, ptr, ptr, ptr, ptr, ptr, ptr, ptr, ptr, ptr, ptr, ptr, ptr, ptr, ptr, ptr, ptr, ptr, ptr, ptr, ptr, ptr, ptr, ptr, ptr, ptr, ptr, ptr, ptr, ptr, ptr, ptr, ptr, ptr, ptr, ptr, ptr, ptr, ptr, ptr, ptr, ptr, ptr, ptr, ptr, ptr, ptr, ptr, ptr, ptr, ptr, ptr, ptr, ptr, ptr, ptr, ptr, ptr, ptr, ptr, ptr, ptr, ptr, ptr, ptr, ptr, ptr, ptr, ptr, ptr, ptr, ptr, ptr, ptr, ptr, ptr, ptr, ptr, ptr, ptr, ptr, ptr, ptr, ptr, ptr, ptr, ptr, ptr, ptr, ptr, ptr, ptr, ptr, ptr, ptr, ptr, ptr, ptr, ptr, ptr, ptr, ptr, ptr, ptr, ptr, ptr, ptr, ptr, ptr, ptr, ptr, ptr, ptr, ptr, ptr, ptr, ptr, ptr, ptr, ptr, ptr, ptr, ptr, ptr }

@x11GraphicsConfigIDs = hidden global %struct.X11GraphicsConfigIDs zeroinitializer, align 8
@.str = private unnamed_addr constant [6 x i8] c"aData\00", align 1
@.str.1 = private unnamed_addr constant [2 x i8] c"J\00", align 1
@.str.2 = private unnamed_addr constant [13 x i8] c"bitsPerPixel\00", align 1
@.str.3 = private unnamed_addr constant [2 x i8] c"I\00", align 1

; Function Attrs: nounwind uwtable
define void @Java_sun_awt_X11GraphicsConfig_initIDs(ptr noundef %0, ptr noundef %1) #0 {
  %3 = alloca ptr, align 8
  %4 = alloca ptr, align 8
  store ptr %0, ptr %3, align 8
  store ptr %1, ptr %4, align 8
  store ptr null, ptr @x11GraphicsConfigIDs, align 8
  store ptr null, ptr getelementptr inbounds (%struct.X11GraphicsConfigIDs, ptr @x11GraphicsConfigIDs, i32 0, i32 1), align 8
  %5 = load ptr, ptr %3, align 8
  %6 = load ptr, ptr %5, align 8
  %7 = getelementptr inbounds %struct.JNINativeInterface_, ptr %6, i32 0, i32 94
  %8 = load ptr, ptr %7, align 8
  %9 = load ptr, ptr %3, align 8
  %10 = load ptr, ptr %4, align 8
  %11 = call ptr %8(ptr noundef %9, ptr noundef %10, ptr noundef @.str, ptr noundef @.str.1)
  store ptr %11, ptr @x11GraphicsConfigIDs, align 8
  br label %12

12:                                               ; preds = %2
  %13 = load ptr, ptr @x11GraphicsConfigIDs, align 8
  %14 = icmp eq ptr %13, null
  br i1 %14, label %15, label %16

15:                                               ; preds = %12
  br label %30

16:                                               ; preds = %12
  br label %17

17:                                               ; preds = %16
  %18 = load ptr, ptr %3, align 8
  %19 = load ptr, ptr %18, align 8
  %20 = getelementptr inbounds %struct.JNINativeInterface_, ptr %19, i32 0, i32 94
  %21 = load ptr, ptr %20, align 8
  %22 = load ptr, ptr %3, align 8
  %23 = load ptr, ptr %4, align 8
  %24 = call ptr %21(ptr noundef %22, ptr noundef %23, ptr noundef @.str.2, ptr noundef @.str.3)
  store ptr %24, ptr getelementptr inbounds (%struct.X11GraphicsConfigIDs, ptr @x11GraphicsConfigIDs, i32 0, i32 1), align 8
  br label %25

25:                                               ; preds = %17
  %26 = load ptr, ptr getelementptr inbounds (%struct.X11GraphicsConfigIDs, ptr @x11GraphicsConfigIDs, i32 0, i32 1), align 8
  %27 = icmp eq ptr %26, null
  br i1 %27, label %28, label %29

28:                                               ; preds = %25
  br label %30

29:                                               ; preds = %25
  br label %30

30:                                               ; preds = %29, %28, %15
  ret void
}